; --------------------------------------------------------------------------------------------------
; Decoded payload, stage 4
; --------------------------------------------------------------------------------------------------
0x04006254:	60 81 02 10	MOVqw R1, @R0 (+2, +0)
0x04006258:	f7 32 f2 28 f6 95 b8 75 5d bb	MOVIqq R2, 0xbb5d75b895f628f2
0x04006262:	f7 33 8b 7b 73 c6 6e 28 0a d3	MOVIqq R3, 0xd30a286ec6737b8b
0x0400626c:	f7 34 55 51 68 5d 0d 53 fa 1b	MOVIqq R4, 0x1bfa530d5d685155
0x04006276:	f7 35 55 33 08 d2 b3 4d 9c a2	MOVIqq R5, 0xa29c4db3d2083355
0x04006280:	f7 36 34 51 ff b2 83 0d 0a ab	MOVIqq R6, 0xab0a0d83b2ff5134
0x0400628a:	f7 37 3d ab 69 e3 39 83 51 67	MOVIqq R7, 0x67518339e369ab3d
0x04006294:	20 16	MOVqw R6, R1
0x04006296:	77 35 35 00	MOVIqw R5, 0x0035
0x0400629a:	58 56	SHR R6, R5
0x0400629c:	77 35 0b 00	MOVIqw R5, 0x000b
0x040062a0:	57 51	SHL R1, R5
0x040062a2:	55 61	OR R1, R6
0x040062a4:	f7 36 4e 52 2e 98 bf 76 58 1e	MOVIqq R6, 0x1e5876bf982e524e
0x040062ae:	f7 35 0c cc 12 3f dc df 22 f5	MOVIqq R5, 0xf522dfdc3f12cc0c
0x040062b8:	20 16	MOVqw R6, R1
0x040062ba:	77 37 1d 00	MOVIqw R7, 0x001d
0x040062be:	58 76	SHR R6, R7
0x040062c0:	77 37 23 00	MOVIqw R7, 0x0023
0x040062c4:	57 71	SHL R1, R7
0x040062c6:	55 61	OR R1, R6
0x040062c8:	f7 36 75 9d cd 43 a1 5a d2 cd	MOVIqq R6, 0xcdd25aa143cd9d75
0x040062d2:	f7 37 03 bf 3b 0b c8 2c 7e 12	MOVIqq R7, 0x127e2cc80b3bbf03
0x040062dc:	f7 32 42 10 00 00 00 80 00 00	MOVIqq R2, 0x0000800000001042
0x040062e6:	55 21	OR R1, R2
0x040062e8:	f7 32 3e a1 d6 ef 34 f2 5c 9c	MOVIqq R2, 0x9c5cf234efd6a13e
0x040062f2:	f7 36 17 b7 d6 86 f5 5f 48 87	MOVIqq R6, 0x87485ff586d6b717
0x040062fc:	56 21	XOR R1, R2
0x040062fe:	f7 36 9f 9a dd 41 22 f9 03 43	MOVIqq R6, 0x4303f92241dd9a9f
0x04006308:	4d 71	SUB R1, R7
0x0400630a:	20 12	MOVqw R2, R1
0x0400630c:	77 34 23 00	MOVIqw R4, 0x0023
0x04006310:	57 42	SHL R2, R4
0x04006312:	77 34 1d 00	MOVIqw R4, 0x001d
0x04006316:	58 41	SHR R1, R4
0x04006318:	55 21	OR R1, R2
0x0400631a:	f7 32 59 c1 c7 40 77 46 a9 e0	MOVIqq R2, 0xe0a9467740c7c159
0x04006324:	f7 34 3d 07 f6 8d 17 ba 63 26	MOVIqq R4, 0x2663ba178df6073d
0x0400632e:	f7 36 b7 97 1e e8 ef 44 57 ee	MOVIqq R6, 0xee5744efe81e97b7
0x04006338:	4d 61	SUB R1, R6
0x0400633a:	f7 35 fc ab e8 58 9c b9 64 61	MOVIqq R5, 0x6164b99c58e8abfc
0x04006344:	4d 51	SUB R1, R5
0x04006346:	20 13	MOVqw R3, R1
0x04006348:	77 32 19 00	MOVIqw R2, 0x0019
0x0400634c:	58 23	SHR R3, R2
0x0400634e:	77 32 27 00	MOVIqw R2, 0x0027
0x04006352:	57 21	SHL R1, R2
0x04006354:	55 31	OR R1, R3
0x04006356:	f7 33 21 f7 f9 6d 15 b3 85 8d	MOVIqq R3, 0x8d85b3156df9f721
0x04006360:	f7 32 56 5e c9 fd 35 ba b9 d7	MOVIqq R2, 0xd7b9ba35fdc95e56
0x0400636a:	f7 33 b2 4d ba 28 35 cf c8 b7	MOVIqq R3, 0xb7c8cf3528ba4db2
0x04006374:	20 15	MOVqw R5, R1
0x04006376:	77 32 23 00	MOVIqw R2, 0x0023
0x0400637a:	57 25	SHL R5, R2
0x0400637c:	77 32 1d 00	MOVIqw R2, 0x001d
0x04006380:	58 21	SHR R1, R2
0x04006382:	55 51	OR R1, R5
0x04006384:	f7 35 c8 c7 2e 31 e6 a3 2c a4	MOVIqq R5, 0xa42ca3e6312ec7c8
0x0400638e:	f7 32 59 11 93 f5 e8 90 ce 8b	MOVIqq R2, 0x8bce90e8f5931159
0x04006398:	20 13	MOVqw R3, R1
0x0400639a:	77 34 18 00	MOVIqw R4, 0x0018
0x0400639e:	57 43	SHL R3, R4
0x040063a0:	77 34 28 00	MOVIqw R4, 0x0028
0x040063a4:	58 41	SHR R1, R4
0x040063a6:	55 31	OR R1, R3
0x040063a8:	f7 33 b9 e8 f4 a2 85 3c 55 61	MOVIqq R3, 0x61553c85a2f4e8b9
0x040063b2:	f7 34 ba 8b a8 9f 1c 75 02 d2	MOVIqq R4, 0xd202751c9fa88bba
0x040063bc:	56 61	XOR R1, R6
0x040063be:	f7 36 a2 e8 87 ee 2d 25 74 46	MOVIqq R6, 0x4674252dee87e8a2
0x040063c8:	20 15	MOVqw R5, R1
0x040063ca:	77 34 09 00	MOVIqw R4, 0x0009
0x040063ce:	58 45	SHR R5, R4
0x040063d0:	77 34 37 00	MOVIqw R4, 0x0037
0x040063d4:	57 41	SHL R1, R4
0x040063d6:	55 51	OR R1, R5
0x040063d8:	f7 35 f4 e3 c6 94 27 0c f8 60	MOVIqq R5, 0x60f80c2794c6e3f4
0x040063e2:	f7 34 c4 c6 b5 a3 bc 74 be 71	MOVIqq R4, 0x71be74bca3b5c6c4
0x040063ec:	20 14	MOVqw R4, R1
0x040063ee:	77 36 17 00	MOVIqw R6, 0x0017
0x040063f2:	58 64	SHR R4, R6
0x040063f4:	77 36 29 00	MOVIqw R6, 0x0029
0x040063f8:	57 61	SHL R1, R6
0x040063fa:	55 41	OR R1, R4
0x040063fc:	f7 34 0e 7a 11 54 dc 70 ce ed	MOVIqq R4, 0xedce70dc54117a0e
0x04006406:	f7 36 08 e2 78 94 a9 72 22 f8	MOVIqq R6, 0xf82272a99478e208
0x04006410:	4c 21	ADD R1, R2
0x04006412:	4c 21	ADD R1, R2
0x04006414:	20 12	MOVqw R2, R1
0x04006416:	77 34 06 00	MOVIqw R4, 0x0006
0x0400641a:	58 42	SHR R2, R4
0x0400641c:	77 34 3a 00	MOVIqw R4, 0x003a
0x04006420:	57 41	SHL R1, R4
0x04006422:	55 21	OR R1, R2
0x04006424:	f7 32 27 af 5b 31 9e 1f 8e 29	MOVIqq R2, 0x298e1f9e315baf27
0x0400642e:	f7 34 12 eb 99 cc 08 d4 ce 70	MOVIqq R4, 0x70ced408cc99eb12
0x04006438:	4c 31	ADD R1, R3
0x0400643a:	f7 36 35 a1 3a 1a e6 ce f4 c8	MOVIqq R6, 0xc8f4cee61a3aa135
0x04006444:	4b 11	NEG R1, R1
0x04006446:	f7 33 a5 a2 dd a8 26 db df db	MOVIqq R3, 0xdbdfdb26a8dda2a5
0x04006450:	4c 31	ADD R1, R3
0x04006452:	f7 35 42 12 12 ea a3 01 09 e5	MOVIqq R5, 0xe50901a3ea121242
0x0400645c:	4d 61	SUB R1, R6
0x0400645e:	f7 37 a5 6d b5 31 1d 83 e9 12	MOVIqq R7, 0x12e9831d31b56da5
0x04006468:	4b 11	NEG R1, R1
0x0400646a:	4c 31	ADD R1, R3
0x0400646c:	f7 32 ec 77 bf f3 75 57 9a 3e	MOVIqq R2, 0x3e9a5775f3bf77ec
0x04006476:	20 17	MOVqw R7, R1
0x04006478:	77 35 3a 00	MOVIqw R5, 0x003a
0x0400647c:	58 57	SHR R7, R5
0x0400647e:	77 35 06 00	MOVIqw R5, 0x0006
0x04006482:	57 51	SHL R1, R5
0x04006484:	55 71	OR R1, R7
0x04006486:	f7 37 bc 00 11 6a 0e cd a4 4c	MOVIqq R7, 0x4ca4cd0e6a1100bc
0x04006490:	f7 35 c2 39 0a aa 25 ab 89 52	MOVIqq R5, 0x5289ab25aa0a39c2
0x0400649a:	4b 11	NEG R1, R1
0x0400649c:	4b 11	NEG R1, R1
0x0400649e:	20 15	MOVqw R5, R1
0x040064a0:	77 34 0b 00	MOVIqw R4, 0x000b
0x040064a4:	58 45	SHR R5, R4
0x040064a6:	77 34 35 00	MOVIqw R4, 0x0035
0x040064aa:	57 41	SHL R1, R4
0x040064ac:	55 51	OR R1, R5
0x040064ae:	f7 35 f1 d7 77 da 65 b2 0a 2f	MOVIqq R5, 0x2f0ab265da77d7f1
0x040064b8:	f7 34 3b 8e cf 12 92 8c d0 6c	MOVIqq R4, 0x6cd08c9212cf8e3b
0x040064c2:	f7 35 59 79 70 28 4c f6 fa 6a	MOVIqq R5, 0x6afaf64c28707959
0x040064cc:	20 17	MOVqw R7, R1
0x040064ce:	77 35 1c 00	MOVIqw R5, 0x001c
0x040064d2:	57 57	SHL R7, R5
0x040064d4:	77 35 24 00	MOVIqw R5, 0x0024
0x040064d8:	58 51	SHR R1, R5
0x040064da:	55 71	OR R1, R7
0x040064dc:	f7 37 ab 47 a5 ec a8 ad 02 a2	MOVIqq R7, 0xa202ada8eca547ab
0x040064e6:	f7 35 eb fd a5 b5 df e4 99 e0	MOVIqq R5, 0xe099e4dfb5a5fdeb
0x040064f0:	f7 37 87 b5 53 06 8c da f5 c6	MOVIqq R7, 0xc6f5da8c0653b587
0x040064fa:	20 13	MOVqw R3, R1
0x040064fc:	77 36 07 00	MOVIqw R6, 0x0007
0x04006500:	57 63	SHL R3, R6
0x04006502:	77 36 39 00	MOVIqw R6, 0x0039
0x04006506:	58 61	SHR R1, R6
0x04006508:	55 31	OR R1, R3
0x0400650a:	f7 33 2f d4 27 f3 fe db d9 0f	MOVIqq R3, 0x0fd9dbfef327d42f
0x04006514:	f7 36 53 b1 7b b0 e8 92 53 87	MOVIqq R6, 0x875392e8b07bb153
0x0400651e:	20 12	MOVqw R2, R1
0x04006520:	77 35 2b 00	MOVIqw R5, 0x002b
0x04006524:	58 52	SHR R2, R5
0x04006526:	77 35 15 00	MOVIqw R5, 0x0015
0x0400652a:	57 51	SHL R1, R5
0x0400652c:	55 21	OR R1, R2
0x0400652e:	f7 32 bd 7c d8 82 fd 32 d9 f4	MOVIqq R2, 0xf4d932fd82d87cbd
0x04006538:	f7 35 07 67 2d 5f 4e 02 45 08	MOVIqq R5, 0x0845024e5f2d6707
0x04006542:	f7 33 37 76 ed 9e 5c ad a2 68	MOVIqq R3, 0x68a2ad5c9eed7637
0x0400654c:	4c 51	ADD R1, R5
0x0400654e:	f7 34 4c 2b 9f 99 10 6d bd e0	MOVIqq R4, 0xe0bd6d10999f2b4c
0x04006558:	20 15	MOVqw R5, R1
0x0400655a:	77 32 3b 00	MOVIqw R2, 0x003b
0x0400655e:	58 25	SHR R5, R2
0x04006560:	77 32 05 00	MOVIqw R2, 0x0005
0x04006564:	57 21	SHL R1, R2
0x04006566:	55 51	OR R1, R5
0x04006568:	f7 35 e1 8a ff 7b bf ec b5 41	MOVIqq R5, 0x41b5ecbf7bff8ae1
0x04006572:	f7 32 f3 fc c1 29 b7 52 e2 26	MOVIqq R2, 0x26e252b729c1fcf3
0x0400657c:	4b 11	NEG R1, R1
0x0400657e:	4c 31	ADD R1, R3
0x04006580:	f7 35 93 15 fe f3 b4 11 57 67	MOVIqq R5, 0x675711b4f3fe1593
0x0400658a:	4d 31	SUB R1, R3
0x0400658c:	4d 71	SUB R1, R7
0x0400658e:	4c 21	ADD R1, R2
0x04006590:	4b 11	NEG R1, R1
0x04006592:	20 17	MOVqw R7, R1
0x04006594:	77 33 15 00	MOVIqw R3, 0x0015
0x04006598:	58 37	SHR R7, R3
0x0400659a:	77 33 2b 00	MOVIqw R3, 0x002b
0x0400659e:	57 31	SHL R1, R3
0x040065a0:	55 71	OR R1, R7
0x040065a2:	f7 37 43 e7 c6 0c 1d 30 58 ef	MOVIqq R7, 0xef58301d0cc6e743
0x040065ac:	f7 33 9f 91 21 91 9b 03 f6 57	MOVIqq R3, 0x57f6039b9121919f
0x040065b6:	f7 35 00 00 00 10 24 80 00 01	MOVIqq R5, 0x0100802410000000
0x040065c0:	55 51	OR R1, R5
0x040065c2:	f7 35 00 49 8e 97 d5 ee b1 20	MOVIqq R5, 0x20b1eed5978e4900
0x040065cc:	f7 34 55 c3 84 13 75 1c f6 42	MOVIqq R4, 0x42f61c751384c355
0x040065d6:	4c 51	ADD R1, R5
0x040065d8:	f7 35 93 98 89 2f c8 09 79 21	MOVIqq R5, 0x217909c82f899893
0x040065e2:	4c 21	ADD R1, R2
0x040065e4:	f7 32 7a d0 13 6f 74 88 12 8d	MOVIqq R2, 0x8d1288746f13d07a
0x040065ee:	56 31	XOR R1, R3
0x040065f0:	f7 34 65 b9 d1 07 98 3e 33 1a	MOVIqq R4, 0x1a333e9807d1b965
0x040065fa:	f7 33 00 02 00 00 00 b0 00 10	MOVIqq R3, 0x1000b00000000200
0x04006604:	55 31	OR R1, R3
0x04006606:	f7 33 58 f0 e7 57 f3 74 46 3f	MOVIqq R3, 0x3f4674f357e7f058
0x04006610:	20 14	MOVqw R4, R1
0x04006612:	77 33 27 00	MOVIqw R3, 0x0027
0x04006616:	58 34	SHR R4, R3
0x04006618:	77 33 19 00	MOVIqw R3, 0x0019
0x0400661c:	57 31	SHL R1, R3
0x0400661e:	55 41	OR R1, R4
0x04006620:	f7 34 17 ae 25 cf 64 f9 dd c2	MOVIqq R4, 0xc2ddf964cf25ae17
0x0400662a:	f7 33 c3 df e0 b6 02 21 d6 2d	MOVIqq R3, 0x2dd62102b6e0dfc3
0x04006634:	f7 34 50 40 00 08 00 00 01 00	MOVIqq R4, 0x0001000008004050
0x0400663e:	55 41	OR R1, R4
0x04006640:	f7 34 19 0f 85 84 34 f7 fe 2e	MOVIqq R4, 0x2efef73484850f19
0x0400664a:	f7 35 ed 48 2f 57 37 61 86 41	MOVIqq R5, 0x41866137572f48ed
0x04006654:	4d 21	SUB R1, R2
0x04006656:	20 12	MOVqw R2, R1
0x04006658:	77 33 0f 00	MOVIqw R3, 0x000f
0x0400665c:	58 32	SHR R2, R3
0x0400665e:	77 33 31 00	MOVIqw R3, 0x0031
0x04006662:	57 31	SHL R1, R3
0x04006664:	55 21	OR R1, R2
0x04006666:	f7 32 6c 8b 37 7a 77 11 b1 64	MOVIqq R2, 0x64b111777a378b6c
0x04006670:	f7 33 5a 40 6f 03 4d f4 7a c7	MOVIqq R3, 0xc77af44d036f405a
0x0400667a:	20 14	MOVqw R4, R1
0x0400667c:	77 37 0c 00	MOVIqw R7, 0x000c
0x04006680:	58 74	SHR R4, R7
0x04006682:	77 37 34 00	MOVIqw R7, 0x0034
0x04006686:	57 71	SHL R1, R7
0x04006688:	55 41	OR R1, R4
0x0400668a:	f7 34 c7 2e 88 ab 8e 12 aa ba	MOVIqq R4, 0xbaaa128eab882ec7
0x04006694:	f7 37 27 4e 1b ac e0 1e 13 76	MOVIqq R7, 0x76131ee0ac1b4e27
0x0400669e:	20 17	MOVqw R7, R1
0x040066a0:	77 35 33 00	MOVIqw R5, 0x0033
0x040066a4:	57 57	SHL R7, R5
0x040066a6:	77 35 0d 00	MOVIqw R5, 0x000d
0x040066aa:	58 51	SHR R1, R5
0x040066ac:	55 71	OR R1, R7
0x040066ae:	f7 37 11 b8 37 bb 26 09 f7 8a	MOVIqq R7, 0x8af70926bb37b811
0x040066b8:	f7 35 91 a0 73 f3 74 e1 ab 46	MOVIqq R5, 0x46abe174f373a091
0x040066c2:	20 15	MOVqw R5, R1
0x040066c4:	77 33 19 00	MOVIqw R3, 0x0019
0x040066c8:	57 35	SHL R5, R3
0x040066ca:	77 33 27 00	MOVIqw R3, 0x0027
0x040066ce:	58 31	SHR R1, R3
0x040066d0:	55 51	OR R1, R5
0x040066d2:	f7 35 b7 12 73 8d 78 c7 f7 86	MOVIqq R5, 0x86f7c7788d7312b7
0x040066dc:	f7 33 80 64 4e 6f bf bb 0f 08	MOVIqq R3, 0x080fbbbf6f4e6480
0x040066e6:	f7 32 fc 65 4e f8 9b 2c d1 9d	MOVIqq R2, 0x9dd12c9bf84e65fc
0x040066f0:	20 17	MOVqw R7, R1
0x040066f2:	77 36 3b 00	MOVIqw R6, 0x003b
0x040066f6:	57 67	SHL R7, R6
0x040066f8:	77 36 05 00	MOVIqw R6, 0x0005
0x040066fc:	58 61	SHR R1, R6
0x040066fe:	55 71	OR R1, R7
0x04006700:	f7 37 80 0a 36 3a 7d e4 68 5e	MOVIqq R7, 0x5e68e47d3a360a80
0x0400670a:	f7 36 25 04 66 2b 9b 8f af a0	MOVIqq R6, 0xa0af8f9b2b660425
0x04006714:	20 12	MOVqw R2, R1
0x04006716:	77 33 28 00	MOVIqw R3, 0x0028
0x0400671a:	57 32	SHL R2, R3
0x0400671c:	77 33 18 00	MOVIqw R3, 0x0018
0x04006720:	58 31	SHR R1, R3
0x04006722:	55 21	OR R1, R2
0x04006724:	f7 32 89 d4 47 8f 06 e1 c6 eb	MOVIqq R2, 0xebc6e1068f47d489
0x0400672e:	f7 33 3a 45 c9 e6 06 cf ed 3a	MOVIqq R3, 0x3aedcf06e6c9453a
0x04006738:	4d 51	SUB R1, R5
0x0400673a:	20 12	MOVqw R2, R1
0x0400673c:	77 37 3d 00	MOVIqw R7, 0x003d
0x04006740:	58 72	SHR R2, R7
0x04006742:	77 37 03 00	MOVIqw R7, 0x0003
0x04006746:	57 71	SHL R1, R7
0x04006748:	55 21	OR R1, R2
0x0400674a:	f7 32 18 77 ee ce 4e e9 5c 04	MOVIqq R2, 0x045ce94eceee7718
0x04006754:	f7 37 96 ce 95 ba 4e 04 d0 02	MOVIqq R7, 0x02d0044eba95ce96
0x0400675e:	20 15	MOVqw R5, R1
0x04006760:	77 32 05 00	MOVIqw R2, 0x0005
0x04006764:	58 25	SHR R5, R2
0x04006766:	77 32 3b 00	MOVIqw R2, 0x003b
0x0400676a:	57 21	SHL R1, R2
0x0400676c:	55 51	OR R1, R5
0x0400676e:	f7 35 93 cd 3c 80 ff 27 e2 21	MOVIqq R5, 0x21e227ff803ccd93
0x04006778:	f7 32 11 50 91 d4 f5 05 61 fb	MOVIqq R2, 0xfb6105f5d4915011
0x04006782:	f7 32 0b 7c 52 ab 31 76 4f 20	MOVIqq R2, 0x204f7631ab527c0b
0x0400678c:	4c 71	ADD R1, R7
0x0400678e:	f7 32 6c f8 a1 b8 e6 e0 29 a0	MOVIqq R2, 0xa029e0e6b8a1f86c
0x04006798:	56 31	XOR R1, R3
0x0400679a:	f7 35 4e 09 52 40 3d c3 eb 6d	MOVIqq R5, 0x6debc33d4052094e
0x040067a4:	4d 71	SUB R1, R7
0x040067a6:	20 13	MOVqw R3, R1
0x040067a8:	77 37 11 00	MOVIqw R7, 0x0011
0x040067ac:	58 73	SHR R3, R7
0x040067ae:	77 37 2f 00	MOVIqw R7, 0x002f
0x040067b2:	57 71	SHL R1, R7
0x040067b4:	55 31	OR R1, R3
0x040067b6:	f7 33 fe 39 1c e9 b2 0b 4e b0	MOVIqq R3, 0xb04e0bb2e91c39fe
0x040067c0:	f7 37 6a 16 05 75 ec ce 0d 21	MOVIqq R7, 0x210dceec7505166a
0x040067ca:	4d 51	SUB R1, R5
0x040067cc:	56 41	XOR R1, R4
0x040067ce:	f7 35 90 09 5d 4f fd 07 3e d6	MOVIqq R5, 0xd63e07fd4f5d0990
0x040067d8:	56 61	XOR R1, R6
0x040067da:	20 16	MOVqw R6, R1
0x040067dc:	77 34 16 00	MOVIqw R4, 0x0016
0x040067e0:	58 46	SHR R6, R4
0x040067e2:	77 34 2a 00	MOVIqw R4, 0x002a
0x040067e6:	57 41	SHL R1, R4
0x040067e8:	55 61	OR R1, R6
0x040067ea:	f7 36 13 04 f1 03 f5 4c a0 c0	MOVIqq R6, 0xc0a04cf503f10413
0x040067f4:	f7 34 d5 e0 0d 73 2c b5 15 df	MOVIqq R4, 0xdf15b52c730de0d5
0x040067fe:	4c 41	ADD R1, R4
0x04006800:	20 13	MOVqw R3, R1
0x04006802:	77 36 3e 00	MOVIqw R6, 0x003e
0x04006806:	57 63	SHL R3, R6
0x04006808:	77 36 02 00	MOVIqw R6, 0x0002
0x0400680c:	58 61	SHR R1, R6
0x0400680e:	55 31	OR R1, R3
0x04006810:	f7 33 2a a2 cb 41 7e 04 11 e0	MOVIqq R3, 0xe011047e41cba22a
0x0400681a:	f7 36 18 0e d0 24 8d 8d fb ad	MOVIqq R6, 0xadfb8d8d24d00e18
0x04006824:	20 15	MOVqw R5, R1
0x04006826:	77 32 28 00	MOVIqw R2, 0x0028
0x0400682a:	57 25	SHL R5, R2
0x0400682c:	77 32 18 00	MOVIqw R2, 0x0018
0x04006830:	58 21	SHR R1, R2
0x04006832:	55 51	OR R1, R5
0x04006834:	f7 35 e8 6b 1f ad 04 1c c5 53	MOVIqq R5, 0x53c51c04ad1f6be8
0x0400683e:	f7 32 e5 25 f7 2b 9c 74 83 84	MOVIqq R2, 0x8483749c2bf725e5
0x04006848:	20 16	MOVqw R6, R1
0x0400684a:	77 35 06 00	MOVIqw R5, 0x0006
0x0400684e:	57 56	SHL R6, R5
0x04006850:	77 35 3a 00	MOVIqw R5, 0x003a
0x04006854:	58 51	SHR R1, R5
0x04006856:	55 61	OR R1, R6
0x04006858:	f7 36 16 95 60 8e 2e 32 83 5f	MOVIqq R6, 0x5f83322e8e609516
0x04006862:	f7 35 a0 3a d7 2b f6 7f 87 3b	MOVIqq R5, 0x3b877ff62bd73aa0
0x0400686c:	f7 37 e7 48 81 55 d5 4d 78 dc	MOVIqq R7, 0xdc784dd5558148e7
0x04006876:	4d 21	SUB R1, R2
0x04006878:	4c 21	ADD R1, R2
0x0400687a:	f7 34 f1 e4 a1 38 d8 9e 3d be	MOVIqq R4, 0xbe3d9ed838a1e4f1
0x04006884:	4d 51	SUB R1, R5
0x04006886:	4d 41	SUB R1, R4
0x04006888:	f7 36 27 cd f1 61 39 fa 82 58	MOVIqq R6, 0x5882fa3961f1cd27
0x04006892:	4c 41	ADD R1, R4
0x04006894:	4b 11	NEG R1, R1
0x04006896:	f7 34 80 5b 00 39 c0 1c e4 73	MOVIqq R4, 0x73e41cc039005b80
0x040068a0:	20 12	MOVqw R2, R1
0x040068a2:	77 35 06 00	MOVIqw R5, 0x0006
0x040068a6:	57 52	SHL R2, R5
0x040068a8:	77 35 3a 00	MOVIqw R5, 0x003a
0x040068ac:	58 51	SHR R1, R5
0x040068ae:	55 21	OR R1, R2
0x040068b0:	f7 32 6d 78 fd b0 fe 06 a6 ff	MOVIqq R2, 0xffa606feb0fd786d
0x040068ba:	f7 35 cd cf e7 dc 31 65 06 53	MOVIqq R5, 0x53066531dce7cfcd
0x040068c4:	f7 33 cb ee 68 8c 63 7f 11 16	MOVIqq R3, 0x16117f638c68eecb
0x040068ce:	56 51	XOR R1, R5
0x040068d0:	4a 11	NOT R1, R1
0x040068d2:	f7 33 d3 92 09 5a 0d f1 7f a0	MOVIqq R3, 0xa07ff10d5a0992d3
0x040068dc:	56 41	XOR R1, R4
0x040068de:	20 17	MOVqw R7, R1
0x040068e0:	77 32 31 00	MOVIqw R2, 0x0031
0x040068e4:	58 27	SHR R7, R2
0x040068e6:	77 32 0f 00	MOVIqw R2, 0x000f
0x040068ea:	57 21	SHL R1, R2
0x040068ec:	55 71	OR R1, R7
0x040068ee:	f7 37 33 b6 3a 88 cb b1 d3 fa	MOVIqq R7, 0xfad3b1cb883ab633
0x040068f8:	f7 32 fb 9a 11 16 4a 7a 37 ec	MOVIqq R2, 0xec377a4a16119afb
0x04006902:	f7 34 00 fa 73 a2 49 c0 48 8f	MOVIqq R4, 0x8f48c049a273fa00
0x0400690c:	4d 31	SUB R1, R3
0x0400690e:	f7 32 ed f6 1c e1 b4 a4 96 2e	MOVIqq R2, 0x2e96a4b4e11cf6ed
0x04006918:	20 12	MOVqw R2, R1
0x0400691a:	77 34 2a 00	MOVIqw R4, 0x002a
0x0400691e:	57 42	SHL R2, R4
0x04006920:	77 34 16 00	MOVIqw R4, 0x0016
0x04006924:	58 41	SHR R1, R4
0x04006926:	55 21	OR R1, R2
0x04006928:	f7 32 ce 38 06 09 40 d1 24 32	MOVIqq R2, 0x3224d140090638ce
0x04006932:	f7 34 fd bb fa 62 d8 65 c0 1c	MOVIqq R4, 0x1cc065d862fabbfd
0x0400693c:	f7 33 00 80 90 40 00 01 00 00	MOVIqq R3, 0x0000010040908000
0x04006946:	55 31	OR R1, R3
0x04006948:	f7 33 53 67 b3 09 9d f6 e2 d5	MOVIqq R3, 0xd5e2f69d09b36753
0x04006952:	4d 21	SUB R1, R2
0x04006954:	4a 11	NOT R1, R1
0x04006956:	f7 35 00 00 00 04 08 41 02 00	MOVIqq R5, 0x0002410804000000
0x04006960:	55 51	OR R1, R5
0x04006962:	f7 35 01 42 a7 50 6f 64 b3 3b	MOVIqq R5, 0x3bb3646f50a74201
0x0400696c:	20 17	MOVqw R7, R1
0x0400696e:	77 32 09 00	MOVIqw R2, 0x0009
0x04006972:	57 27	SHL R7, R2
0x04006974:	77 32 37 00	MOVIqw R2, 0x0037
0x04006978:	58 21	SHR R1, R2
0x0400697a:	55 71	OR R1, R7
0x0400697c:	f7 37 83 e2 e4 c1 43 17 0b 40	MOVIqq R7, 0x400b1743c1e4e283
0x04006986:	f7 32 e2 bb ec d9 e6 94 f1 25	MOVIqq R2, 0x25f194e6d9ecbbe2
0x04006990:	20 14	MOVqw R4, R1
0x04006992:	77 37 06 00	MOVIqw R7, 0x0006
0x04006996:	57 74	SHL R4, R7
0x04006998:	77 37 3a 00	MOVIqw R7, 0x003a
0x0400699c:	58 71	SHR R1, R7
0x0400699e:	55 41	OR R1, R4
0x040069a0:	f7 34 5a 8b dc 38 48 9f d8 03	MOVIqq R4, 0x03d89f4838dc8b5a
0x040069aa:	f7 37 66 c6 39 60 17 f8 6d 09	MOVIqq R7, 0x096df8176039c666
0x040069b4:	4d 61	SUB R1, R6
0x040069b6:	4d 31	SUB R1, R3
0x040069b8:	56 21	XOR R1, R2
0x040069ba:	20 16	MOVqw R6, R1
0x040069bc:	77 37 38 00	MOVIqw R7, 0x0038
0x040069c0:	58 76	SHR R6, R7
0x040069c2:	77 37 08 00	MOVIqw R7, 0x0008
0x040069c6:	57 71	SHL R1, R7
0x040069c8:	55 61	OR R1, R6
0x040069ca:	f7 36 3f 49 f9 ed ee f1 f8 78	MOVIqq R6, 0x78f8f1eeedf9493f
0x040069d4:	f7 37 e6 0d aa 9c 52 92 c1 99	MOVIqq R7, 0x99c192529caa0de6
0x040069de:	f7 33 8c 2d 46 13 ec 8a a5 12	MOVIqq R3, 0x12a58aec13462d8c
0x040069e8:	4d 41	SUB R1, R4
0x040069ea:	f7 35 00 30 00 01 02 04 00 00	MOVIqq R5, 0x0000040201003000
0x040069f4:	55 51	OR R1, R5
0x040069f6:	f7 35 cb fb 30 89 bf c6 e0 e9	MOVIqq R5, 0xe9e0c6bf8930fbcb
0x04006a00:	f7 33 7c e1 fc d5 4e 48 31 fd	MOVIqq R3, 0xfd31484ed5fce17c
0x04006a0a:	4d 71	SUB R1, R7
0x04006a0c:	4c 21	ADD R1, R2
0x04006a0e:	f7 34 e6 1d 5f ec 02 a4 51 88	MOVIqq R4, 0x8851a402ec5f1de6
0x04006a18:	4b 11	NEG R1, R1
0x04006a1a:	f7 32 9f cf 22 e5 b5 91 83 6c	MOVIqq R2, 0x6c8391b5e522cf9f
0x04006a24:	4c 21	ADD R1, R2
0x04006a26:	4c 31	ADD R1, R3
0x04006a28:	20 13	MOVqw R3, R1
0x04006a2a:	77 32 2e 00	MOVIqw R2, 0x002e
0x04006a2e:	58 23	SHR R3, R2
0x04006a30:	77 32 12 00	MOVIqw R2, 0x0012
0x04006a34:	57 21	SHL R1, R2
0x04006a36:	55 31	OR R1, R3
0x04006a38:	f7 33 b0 d2 cf 24 d8 04 37 52	MOVIqq R3, 0x523704d824cfd2b0
0x04006a42:	f7 32 de be 09 9e eb d7 ec 39	MOVIqq R2, 0x39ecd7eb9e09bede
0x04006a4c:	20 12	MOVqw R2, R1
0x04006a4e:	77 36 09 00	MOVIqw R6, 0x0009
0x04006a52:	58 62	SHR R2, R6
0x04006a54:	77 36 37 00	MOVIqw R6, 0x0037
0x04006a58:	57 61	SHL R1, R6
0x04006a5a:	55 21	OR R1, R2
0x04006a5c:	f7 32 ef c7 8f 57 5d ec ac 8f	MOVIqq R2, 0x8facec5d578fc7ef
0x04006a66:	f7 36 c3 7a 55 82 ca b3 01 ed	MOVIqq R6, 0xed01b3ca82557ac3
0x04006a70:	f7 37 02 aa 9d ee 34 a1 52 c6	MOVIqq R7, 0xc652a134ee9daa02
0x04006a7a:	45 71	CMPeq R1, R7
0x04006a7c:	82 7e	JMP8cc 0x7e
0x04006a7e:	60 81 03 10	MOVqw R1, @R0 (+3, +0)
0x04006a82:	f7 32 fa 75 dc d9 d1 08 18 4e	MOVIqq R2, 0x4e1808d1d9dc75fa
0x04006a8c:	f7 33 9e 9d 48 fc 94 22 f9 2e	MOVIqq R3, 0x2ef92294fc489d9e
0x04006a96:	f7 34 12 f2 b3 24 12 1c 27 fe	MOVIqq R4, 0xfe271c1224b3f212
0x04006aa0:	f7 35 e4 99 7e 36 18 b0 c8 4c	MOVIqq R5, 0x4cc8b018367e99e4
0x04006aaa:	f7 36 d6 be ec 8a b1 ab ed ef	MOVIqq R6, 0xefedabb18aecbed6
0x04006ab4:	f7 37 10 1a 3d 6e d0 3f 97 c4	MOVIqq R7, 0xc4973fd06e3d1a10
0x04006abe:	4d 71	SUB R1, R7
0x04006ac0:	4d 51	SUB R1, R5
0x04006ac2:	f7 33 83 bc 88 c8 97 3d 36 dc	MOVIqq R3, 0xdc363d97c888bc83
0x04006acc:	4d 71	SUB R1, R7
0x04006ace:	4d 61	SUB R1, R6
0x04006ad0:	f7 33 a9 51 83 29 72 dc d3 75	MOVIqq R3, 0x75d3dc72298351a9
0x04006ada:	56 21	XOR R1, R2
0x04006adc:	20 13	MOVqw R3, R1
0x04006ade:	77 34 3f 00	MOVIqw R4, 0x003f
0x04006ae2:	58 43	SHR R3, R4
0x04006ae4:	77 34 01 00	MOVIqw R4, 0x0001
0x04006ae8:	57 41	SHL R1, R4
0x04006aea:	55 31	OR R1, R3
0x04006aec:	f7 33 77 1f 23 45 12 f2 cc 3c	MOVIqq R3, 0x3cccf21245231f77
0x04006af6:	f7 34 2e e3 d4 b9 a8 dc 24 94	MOVIqq R4, 0x9424dca8b9d4e32e
0x04006b00:	20 16	MOVqw R6, R1
0x04006b02:	77 34 33 00	MOVIqw R4, 0x0033
0x04006b06:	57 46	SHL R6, R4
0x04006b08:	77 34 0d 00	MOVIqw R4, 0x000d
0x04006b0c:	58 41	SHR R1, R4
0x04006b0e:	55 61	OR R1, R6
0x04006b10:	f7 36 0d 13 65 cb a9 a9 cc 5f	MOVIqq R6, 0x5fcca9a9cb65130d
0x04006b1a:	f7 34 69 5c ff ff 20 97 8a 43	MOVIqq R4, 0x438a9720ffff5c69
0x04006b24:	56 61	XOR R1, R6
0x04006b26:	4d 71	SUB R1, R7
0x04006b28:	4c 51	ADD R1, R5
0x04006b2a:	f7 32 81 f2 58 e7 4e 16 f0 93	MOVIqq R2, 0x93f0164ee758f281
0x04006b34:	4c 41	ADD R1, R4
0x04006b36:	f7 35 2e cc 48 c6 67 e8 35 4f	MOVIqq R5, 0x4f35e867c648cc2e
0x04006b40:	20 14	MOVqw R4, R1
0x04006b42:	77 37 03 00	MOVIqw R7, 0x0003
0x04006b46:	58 74	SHR R4, R7
0x04006b48:	77 37 3d 00	MOVIqw R7, 0x003d
0x04006b4c:	57 71	SHL R1, R7
0x04006b4e:	55 41	OR R1, R4
0x04006b50:	f7 34 31 72 23 f5 97 27 de 39	MOVIqq R4, 0x39de2797f5237231
0x04006b5a:	f7 37 a5 4d 1e 96 2e 98 7d bc	MOVIqq R7, 0xbc7d982e961e4da5
0x04006b64:	56 31	XOR R1, R3
0x04006b66:	f7 37 82 6d c8 3f 32 0c 8a 3b	MOVIqq R7, 0x3b8a0c323fc86d82
0x04006b70:	45 71	CMPeq R1, R7
0x04006b72:	82 03	JMP8cc 0x03
0x04006b74:	77 31 01 00	MOVIqw R1, 0x0001
0x04006b78:	02 02	JMP8 0x02
0x04006b7a:	77 31 00 00	MOVIqw R1, 0x0000
0x04006b7e:	20 17	MOVqw R7, R1
0x04006b80:	04 00	RET
0x04006b82:	95 4e 00 00	OR @R6, R4 (0x0000)
