; --------------------------------------------------------------------------------------------------
; Decoded payload, stage 3
; --------------------------------------------------------------------------------------------------
0x04006354:	60 81 02 10	MOVqw R1, @R0 (+2, +0)
0x04006358:	f7 32 f2 28 f6 95 b8 75 5d bb	MOVIqq R2, 0xbb5d75b895f628f2
0x04006362:	f7 33 8b 7b 73 c6 6e 28 0a d3	MOVIqq R3, 0xd30a286ec6737b8b
0x0400636c:	f7 34 55 51 68 5d 0d 53 fa 1b	MOVIqq R4, 0x1bfa530d5d685155
0x04006376:	f7 35 55 33 08 d2 b3 4d 9c a2	MOVIqq R5, 0xa29c4db3d2083355
0x04006380:	f7 36 34 51 ff b2 83 0d 0a ab	MOVIqq R6, 0xab0a0d83b2ff5134
0x0400638a:	f7 37 3d ab 69 e3 39 83 51 67	MOVIqq R7, 0x67518339e369ab3d
0x04006394:	20 16	MOVqw R6, R1
0x04006396:	77 35 35 00	MOVIqw R5, 0x0035
0x0400639a:	57 56	SHL R6, R5
0x0400639c:	77 35 0b 00	MOVIqw R5, 0x000b
0x040063a0:	58 51	SHR R1, R5
0x040063a2:	55 61	OR R1, R6
0x040063a4:	f7 36 4e 52 2e 98 bf 76 58 1e	MOVIqq R6, 0x1e5876bf982e524e
0x040063ae:	f7 35 0c cc 12 3f dc df 22 f5	MOVIqq R5, 0xf522dfdc3f12cc0c
0x040063b8:	4d 61	SUB R1, R6
0x040063ba:	56 31	XOR R1, R3
0x040063bc:	f7 32 03 bf 3b 0b c8 2c 7e 12	MOVIqq R2, 0x127e2cc80b3bbf03
0x040063c6:	20 17	MOVqw R7, R1
0x040063c8:	77 32 02 00	MOVIqw R2, 0x0002
0x040063cc:	57 27	SHL R7, R2
0x040063ce:	77 32 3e 00	MOVIqw R2, 0x003e
0x040063d2:	58 21	SHR R1, R2
0x040063d4:	55 71	OR R1, R7
0x040063d6:	f7 37 98 c7 62 32 80 09 70 32	MOVIqq R7, 0x327009803262c798
0x040063e0:	f7 32 42 e6 f0 48 76 b9 52 32	MOVIqq R2, 0x3252b97648f0e642
0x040063ea:	77 35 01 00	MOVIqw R5, 0x0001
0x040063ee:	55 51	OR R1, R5
0x040063f0:	f7 35 3e a1 d6 ef 34 f2 5c 9c	MOVIqq R5, 0x9c5cf234efd6a13e
0x040063fa:	f7 36 17 b7 d6 86 f5 5f 48 87	MOVIqq R6, 0x87485ff586d6b717
0x04006404:	20 12	MOVqw R2, R1
0x04006406:	77 34 2f 00	MOVIqw R4, 0x002f
0x0400640a:	58 42	SHR R2, R4
0x0400640c:	77 34 11 00	MOVIqw R4, 0x0011
0x04006410:	57 41	SHL R1, R4
0x04006412:	55 21	OR R1, R2
0x04006414:	f7 32 9f 9a dd 41 22 f9 03 43	MOVIqq R2, 0x4303f92241dd9a9f
0x0400641e:	f7 34 3f 0e 14 0f 80 52 54 e7	MOVIqq R4, 0xe75452800f140e3f
0x04006428:	f7 32 09 ff bb 0d 3d 07 f6 8d	MOVIqq R2, 0x8df6073d0dbbff09
0x04006432:	4c 51	ADD R1, R5
0x04006434:	20 14	MOVqw R4, R1
0x04006436:	77 36 0a 00	MOVIqw R6, 0x000a
0x0400643a:	58 64	SHR R4, R6
0x0400643c:	77 36 36 00	MOVIqw R6, 0x0036
0x04006440:	57 61	SHL R1, R6
0x04006442:	55 41	OR R1, R4
0x04006444:	f7 34 ef 98 48 a2 fd f5 18 76	MOVIqq R4, 0x7618f5fda24898ef
0x0400644e:	f7 36 9c b9 64 61 eb 44 83 11	MOVIqq R6, 0x118344eb6164b99c
0x04006458:	f7 36 69 7e b8 36 bb 91 07 31	MOVIqq R6, 0x310791bb36b87e69
0x04006462:	56 51	XOR R1, R5
0x04006464:	4d 61	SUB R1, R6
0x04006466:	20 13	MOVqw R3, R1
0x04006468:	77 36 28 00	MOVIqw R6, 0x0028
0x0400646c:	57 63	SHL R3, R6
0x0400646e:	77 36 18 00	MOVIqw R6, 0x0018
0x04006472:	58 61	SHR R1, R6
0x04006474:	55 31	OR R1, R3
0x04006476:	f7 33 20 15 e3 6a 9e 0f 32 ef	MOVIqq R3, 0xef320f9e6ae31520
0x04006480:	f7 36 bc 83 99 b2 2e b9 11 a1	MOVIqq R6, 0xa111b92eb29983bc
0x0400648a:	f7 35 c8 c7 2e 31 e6 a3 2c a4	MOVIqq R5, 0xa42ca3e6312ec7c8
0x04006494:	4d 71	SUB R1, R7
0x04006496:	20 17	MOVqw R7, R1
0x04006498:	77 33 14 00	MOVIqw R3, 0x0014
0x0400649c:	58 37	SHR R7, R3
0x0400649e:	77 33 2c 00	MOVIqw R3, 0x002c
0x040064a2:	57 31	SHL R1, R3
0x040064a4:	55 71	OR R1, R7
0x040064a6:	f7 37 1b 21 a8 70 48 f5 83 94	MOVIqq R7, 0x9483f54870a8211b
0x040064b0:	f7 33 41 5d 37 f7 b9 e8 f4 a2	MOVIqq R3, 0xa2f4e8b9f7375d41
0x040064ba:	f7 36 7c 62 39 c3 38 13 0d bf	MOVIqq R6, 0xbf0d1338c339627c
0x040064c4:	20 16	MOVqw R6, R1
0x040064c6:	77 34 01 00	MOVIqw R4, 0x0001
0x040064ca:	57 46	SHL R6, R4
0x040064cc:	77 34 3f 00	MOVIqw R4, 0x003f
0x040064d0:	58 41	SHR R1, R4
0x040064d2:	55 61	OR R1, R6
0x040064d4:	f7 36 99 9e 85 63 1b 5e 19 ff	MOVIqq R6, 0xff195e1b63859e99
0x040064de:	f7 34 0b 56 18 81 f4 e3 c6 94	MOVIqq R4, 0x94c6e3f48118560b
0x040064e8:	f7 34 fd 4c c0 aa e3 ee 36 3e	MOVIqq R4, 0x3e36eee3aac04cfd
0x040064f2:	4b 11	NEG R1, R1
0x040064f4:	20 15	MOVqw R5, R1
0x040064f6:	77 37 25 00	MOVIqw R7, 0x0025
0x040064fa:	58 75	SHR R5, R7
0x040064fc:	77 37 1b 00	MOVIqw R7, 0x001b
0x04006500:	57 71	SHL R1, R7
0x04006502:	55 51	OR R1, R5
0x04006504:	f7 35 8a 71 4c ac f8 07 44 f3	MOVIqq R5, 0xf34407f8ac4c718a
0x0400650e:	f7 37 a1 b4 ed ab 0f 78 ec a4	MOVIqq R7, 0xa4ec780fabedb4a1
0x04006518:	20 12	MOVqw R2, R1
0x0400651a:	77 37 3a 00	MOVIqw R7, 0x003a
0x0400651e:	58 72	SHR R2, R7
0x04006520:	77 37 06 00	MOVIqw R7, 0x0006
0x04006524:	57 71	SHL R1, R7
0x04006526:	55 21	OR R1, R2
0x04006528:	f7 32 d9 c6 29 7d 82 51 34 ee	MOVIqq R2, 0xee3451827d29c6d9
0x04006532:	f7 37 40 67 35 bc f1 73 c2 b8	MOVIqq R7, 0xb8c273f1bc356740
0x0400653c:	f7 33 03 34 af 3c 02 6b 77 c0	MOVIqq R3, 0xc0776b023caf3403
0x04006546:	20 16	MOVqw R6, R1
0x04006548:	77 34 33 00	MOVIqw R4, 0x0033
0x0400654c:	58 46	SHR R6, R4
0x0400654e:	77 34 0d 00	MOVIqw R4, 0x000d
0x04006552:	57 41	SHL R1, R4
0x04006554:	55 61	OR R1, R6
0x04006556:	f7 36 af 8f ed 03 81 13 58 e8	MOVIqq R6, 0xe858138103ed8faf
0x04006560:	f7 34 d6 8c 64 32 19 3d 46 1b	MOVIqq R4, 0x1b463d1932648cd6
0x0400656a:	f7 35 a3 01 09 e5 1b 12 12 0f	MOVIqq R5, 0x0f12121be50901a3
0x04006574:	20 16	MOVqw R6, R1
0x04006576:	77 33 23 00	MOVIqw R3, 0x0023
0x0400657a:	58 36	SHR R6, R3
0x0400657c:	77 33 1d 00	MOVIqw R3, 0x001d
0x04006580:	57 31	SHL R1, R3
0x04006582:	55 61	OR R1, R6
0x04006584:	f7 36 23 05 1c 79 99 a3 9b be	MOVIqq R6, 0xbe9ba399791c0523
0x0400658e:	f7 33 1d 83 e9 12 c0 cc e2 12	MOVIqq R3, 0x12e2ccc012e9831d
0x04006598:	20 14	MOVqw R4, R1
0x0400659a:	77 35 02 00	MOVIqw R5, 0x0002
0x0400659e:	57 54	SHL R4, R5
0x040065a0:	77 35 3e 00	MOVIqw R5, 0x003e
0x040065a4:	58 51	SHR R1, R5
0x040065a6:	55 41	OR R1, R4
0x040065a8:	f7 34 e9 ab ae e9 ec 77 bf f3	MOVIqq R4, 0xf3bf77ece9aeabe9
0x040065b2:	f7 35 72 f6 eb a6 5c 8b 34 f9	MOVIqq R5, 0xf9348b5ca6ebf672
0x040065bc:	20 17	MOVqw R7, R1
0x040065be:	77 32 3a 00	MOVIqw R2, 0x003a
0x040065c2:	57 27	SHL R7, R2
0x040065c4:	77 32 06 00	MOVIqw R2, 0x0006
0x040065c8:	58 21	SHR R1, R2
0x040065ca:	55 71	OR R1, R7
0x040065cc:	f7 37 e0 01 6e d8 a7 bc f6 d9	MOVIqq R7, 0xd9f6bca7d86e01e0
0x040065d6:	f7 32 0e cd a4 4c 7d 39 78 7c	MOVIqq R2, 0x7c78397d4ca4cd0e
0x040065e0:	f7 35 25 a1 a0 6f a7 2b 88 9f	MOVIqq R5, 0x9f882ba76fa0a125
0x040065ea:	20 13	MOVqw R3, R1
0x040065ec:	77 34 2b 00	MOVIqw R4, 0x002b
0x040065f0:	57 43	SHL R3, R4
0x040065f2:	77 34 15 00	MOVIqw R4, 0x0015
0x040065f6:	58 41	SHR R1, R4
0x040065f8:	55 31	OR R1, R3
0x040065fa:	f7 33 65 b2 0a 2f bd 42 84 30	MOVIqq R3, 0x308442bd2f0ab265
0x04006604:	f7 34 92 8c d0 6c 71 43 67 30	MOVIqq R4, 0x306743716cd08c92
0x0400660e:	20 16	MOVqw R6, R1
0x04006610:	77 32 0e 00	MOVIqw R2, 0x000e
0x04006614:	58 26	SHR R6, R2
0x04006616:	77 32 32 00	MOVIqw R2, 0x0032
0x0400661a:	57 21	SHL R1, R2
0x0400661c:	55 61	OR R1, R6
0x0400661e:	f7 36 6f de 5b 9a a0 b4 01 d7	MOVIqq R6, 0xd701b4a09a5bde6f
0x04006628:	f7 32 51 07 a1 2f 3c ac d3 6f	MOVIqq R2, 0x6fd3ac3c2fa10751
0x04006632:	f7 37 0f b9 f2 8b ff 1d a1 c1	MOVIqq R7, 0xc1a11dff8bf2b90f
0x0400663c:	4b 11	NEG R1, R1
0x0400663e:	56 21	XOR R1, R2
0x04006640:	20 16	MOVqw R6, R1
0x04006642:	77 33 31 00	MOVIqw R3, 0x0031
0x04006646:	58 36	SHR R6, R3
0x04006648:	77 33 0f 00	MOVIqw R3, 0x000f
0x0400664c:	57 31	SHL R1, R3
0x0400664e:	55 61	OR R1, R6
0x04006650:	f7 36 4f 02 a1 95 58 53 64 97	MOVIqq R6, 0x9764535895a1024f
0x0400665a:	f7 33 33 a2 df e9 91 e6 d9 b2	MOVIqq R3, 0xb2d9e691e9dfa233
0x04006664:	f7 35 4d a8 61 b2 2f d4 27 f3	MOVIqq R5, 0xf327d42fb261a84d
0x0400666e:	4c 51	ADD R1, R5
0x04006670:	20 12	MOVqw R2, R1
0x04006672:	77 35 2b 00	MOVIqw R5, 0x002b
0x04006676:	57 52	SHL R2, R5
0x04006678:	77 35 15 00	MOVIqw R5, 0x0015
0x0400667c:	58 51	SHR R1, R5
0x0400667e:	55 21	OR R1, R2
0x04006680:	f7 32 bd 7c d8 82 fd 32 d9 f4	MOVIqq R2, 0xf4d932fd82d87cbd
0x0400668a:	f7 35 07 67 2d 5f 4e 02 45 08	MOVIqq R5, 0x0845024e5f2d6707
0x04006694:	f7 33 37 76 ed 9e 5c ad a2 68	MOVIqq R3, 0x68a2ad5c9eed7637
0x0400669e:	4c 51	ADD R1, R5
0x040066a0:	f7 34 4c 2b 9f 99 10 6d bd e0	MOVIqq R4, 0xe0bd6d10999f2b4c
0x040066aa:	4c 51	ADD R1, R5
0x040066ac:	f7 37 e1 8a ff 7b bf ec b5 41	MOVIqq R7, 0x41b5ecbf7bff8ae1
0x040066b6:	4d 61	SUB R1, R6
0x040066b8:	4d 61	SUB R1, R6
0x040066ba:	f7 35 dd 0a 0a 5a 6f ef a7 1f	MOVIqq R5, 0x1fa7ef6f5a0a0add
0x040066c4:	56 21	XOR R1, R2
0x040066c6:	56 51	XOR R1, R5
0x040066c8:	f7 37 c7 a5 40 5c bb 2d 9e b6	MOVIqq R7, 0xb69e2dbb5c40a5c7
0x040066d2:	20 15	MOVqw R5, R1
0x040066d4:	77 32 3a 00	MOVIqw R2, 0x003a
0x040066d8:	57 25	SHL R5, R2
0x040066da:	77 32 06 00	MOVIqw R2, 0x0006
0x040066de:	58 21	SHR R1, R2
0x040066e0:	55 51	OR R1, R5
0x040066e2:	f7 35 0c 54 22 51 56 e3 4e 49	MOVIqq R5, 0x494ee3565122540c
0x040066ec:	f7 32 85 3a 15 0b bf e7 2c 41	MOVIqq R2, 0x412ce7bf0b153a85
0x040066f6:	f7 36 2b 92 30 c2 79 c9 c2 96	MOVIqq R6, 0x96c2c979c230922b
0x04006700:	20 12	MOVqw R2, R1
0x04006702:	77 33 35 00	MOVIqw R3, 0x0035
0x04006706:	57 32	SHL R2, R3
0x04006708:	77 33 0b 00	MOVIqw R3, 0x000b
0x0400670c:	58 31	SHR R1, R3
0x0400670e:	55 21	OR R1, R2
0x04006710:	f7 32 1d 30 58 ef 5d ab cb 23	MOVIqq R2, 0x23cbab5def58301d
0x0400671a:	f7 33 51 f9 35 7f 51 fc f4 e2	MOVIqq R3, 0xe2f4fc517f35f951
0x04006724:	4c 31	ADD R1, R3
0x04006726:	f7 35 6e ef 61 05 46 7b a1 70	MOVIqq R5, 0x70a17b460561ef6e
0x04006730:	4d 71	SUB R1, R7
0x04006732:	4d 31	SUB R1, R3
0x04006734:	20 15	MOVqw R5, R1
0x04006736:	77 37 26 00	MOVIqw R7, 0x0026
0x0400673a:	57 75	SHL R5, R7
0x0400673c:	77 37 1a 00	MOVIqw R7, 0x001a
0x04006740:	58 71	SHR R1, R7
0x04006742:	55 51	OR R1, R5
0x04006744:	f7 35 c3 cb 5c 63 14 47 b4 2d	MOVIqq R5, 0x2db44714635ccbc3
0x0400674e:	f7 37 75 1c f6 42 9a 32 ab 54	MOVIqq R7, 0x54ab329a42f61c75
0x04006758:	f7 35 e1 b8 54 b6 13 a6 10 86	MOVIqq R5, 0x8610a613b654b8e1
0x04006762:	4b 11	NEG R1, R1
0x04006764:	4c 61	ADD R1, R6
0x04006766:	f7 32 b6 bc 18 27 0b 1f 18 81	MOVIqq R2, 0x81181f0b2718bcb6
0x04006770:	4c 71	ADD R1, R7
0x04006772:	4c 61	ADD R1, R6
0x04006774:	f7 34 f2 75 31 75 8e 04 68 c4	MOVIqq R4, 0xc468048e753175f2
0x0400677e:	4b 11	NEG R1, R1
0x04006780:	20 12	MOVqw R2, R1
0x04006782:	77 36 2d 00	MOVIqw R6, 0x002d
0x04006786:	57 62	SHL R2, R6
0x04006788:	77 36 13 00	MOVIqw R6, 0x0013
0x0400678c:	58 61	SHR R1, R6
0x0400678e:	55 21	OR R1, R2
0x04006790:	f7 32 5c cc 10 9f 85 43 ba ff	MOVIqq R2, 0xffba43859f10cc5c
0x0400679a:	f7 36 bb d3 f5 b1 97 97 8c df	MOVIqq R6, 0xdf8c9797b1f5d3bb
0x040067a4:	56 41	XOR R1, R4
0x040067a6:	f7 36 32 b7 a7 56 c3 df e0 b6	MOVIqq R6, 0xb6e0dfc356a7b732
0x040067b0:	4b 11	NEG R1, R1
0x040067b2:	4d 71	SUB R1, R7
0x040067b4:	f7 34 0c fd 6d 12 de 47 cc 3b	MOVIqq R4, 0x3bcc47de126dfd0c
0x040067be:	4c 51	ADD R1, R5
0x040067c0:	f7 36 a5 f5 9b 96 ed 48 2f 57	MOVIqq R6, 0x572f48ed969bf5a5
0x040067ca:	4d 21	SUB R1, R2
0x040067cc:	4c 41	ADD R1, R4
0x040067ce:	4c 51	ADD R1, R5
0x040067d0:	f7 34 b5 b7 e0 43 9f 6f 94 94	MOVIqq R4, 0x94946f9f43e0b7b5
0x040067da:	4c 41	ADD R1, R4
0x040067dc:	4a 11	NOT R1, R1
0x040067de:	56 41	XOR R1, R4
0x040067e0:	4d 71	SUB R1, R7
0x040067e2:	20 17	MOVqw R7, R1
0x040067e4:	77 35 23 00	MOVIqw R5, 0x0023
0x040067e8:	57 57	SHL R7, R5
0x040067ea:	77 35 1d 00	MOVIqw R5, 0x001d
0x040067ee:	58 51	SHR R1, R5
0x040067f0:	55 71	OR R1, R7
0x040067f2:	f7 37 91 a0 73 f3 74 e1 ab 46	MOVIqq R7, 0x46abe174f373a091
0x040067fc:	f7 35 c7 87 dd 4e 2b 37 98 d8	MOVIqq R5, 0xd898372b4edd87c7
0x04006806:	4d 51	SUB R1, R5
0x04006808:	f7 32 fd 01 08 57 56 dd 81 ae	MOVIqq R2, 0xae81dd56570801fd
0x04006812:	b7 35 00 00 20 00	MOVIqd R5, 0x00200000
0x04006818:	55 51	OR R1, R5
0x0400681a:	f7 35 94 aa b8 8f be 8b a0 ef	MOVIqq R5, 0xefa08bbe8fb8aa94
0x04006824:	f7 33 70 53 05 38 c9 01 a7 d8	MOVIqq R3, 0xd8a701c938055370
0x0400682e:	4b 11	NEG R1, R1
0x04006830:	f7 35 89 d4 47 8f 06 e1 c6 eb	MOVIqq R5, 0xebc6e1068f47d489
0x0400683a:	20 16	MOVqw R6, R1
0x0400683c:	77 33 20 00	MOVIqw R3, 0x0020
0x04006840:	58 36	SHR R6, R3
0x04006842:	77 33 20 00	MOVIqw R3, 0x0020
0x04006846:	57 31	SHL R1, R3
0x04006848:	55 61	OR R1, R6
0x0400684a:	f7 36 78 f6 88 d4 06 41 dd df	MOVIqq R6, 0xdfdd4106d488f678
0x04006854:	f7 33 36 6c 7c e4 4f 4a 27 d7	MOVIqq R3, 0xd7274a4fe47c6c36
0x0400685e:	4b 11	NEG R1, R1
0x04006860:	f7 35 d9 33 10 d5 93 cd 3c 80	MOVIqq R5, 0x803ccd93d51033d9
0x0400686a:	56 51	XOR R1, R5
0x0400686c:	20 13	MOVqw R3, R1
0x0400686e:	77 36 1d 00	MOVIqw R6, 0x001d
0x04006872:	58 63	SHR R3, R6
0x04006874:	77 36 23 00	MOVIqw R6, 0x0023
0x04006878:	57 61	SHL R1, R6
0x0400687a:	55 31	OR R1, R3
0x0400687c:	f7 33 f2 a8 08 f0 c5 11 da 1a	MOVIqq R3, 0x1ada11c5f008a8f2
0x04006886:	f7 36 0b 7c 52 ab 31 76 4f 20	MOVIqq R6, 0x204f7631ab527c0b
0x04006890:	f7 37 4d 3d c4 18 dd b3 93 87	MOVIqq R7, 0x8793b3dd18c43d4d
0x0400689a:	20 15	MOVqw R5, R1
0x0400689c:	77 36 0b 00	MOVIqw R6, 0x000b
0x040068a0:	58 65	SHR R5, R6
0x040068a2:	77 36 35 00	MOVIqw R6, 0x0035
0x040068a6:	57 61	SHL R1, R6
0x040068a8:	55 51	OR R1, R5
0x040068aa:	f7 35 38 8e aa 68 4e 09 52 40	MOVIqq R5, 0x4052094e68aa8e38
0x040068b4:	f7 36 59 9a 1b e9 0d b8 94 46	MOVIqq R6, 0x4694b80de91b9a59
0x040068be:	f7 37 b2 0b 4e b0 0c 14 25 61	MOVIqq R7, 0x6125140cb04e0bb2
0x040068c8:	56 71	XOR R1, R7
0x040068ca:	4d 31	SUB R1, R3
0x040068cc:	56 71	XOR R1, R7
0x040068ce:	b7 34 00 00 00 08	MOVIqd R4, 0x08000000
0x040068d4:	55 41	OR R1, R4
0x040068d6:	f7 34 00 5d af 21 9f 3b 9c 83	MOVIqq R4, 0x839c3b9f21af5d00
0x040068e0:	f7 32 57 41 a4 95 c6 a7 72 9c	MOVIqq R2, 0x9c72a7c695a44157
0x040068ea:	56 21	XOR R1, R2
0x040068ec:	4c 31	ADD R1, R3
0x040068ee:	f7 37 a5 ef 38 8f aa 81 1a b8	MOVIqq R7, 0xb81a81aa8f38efa5
0x040068f8:	4c 41	ADD R1, R4
0x040068fa:	f7 33 3a cd f9 a3 30 ed 95 86	MOVIqq R3, 0x8695ed30a3f9cd3a
0x04006904:	20 14	MOVqw R4, R1
0x04006906:	77 32 0f 00	MOVIqw R2, 0x000f
0x0400690a:	58 24	SHR R4, R2
0x0400690c:	77 32 31 00	MOVIqw R2, 0x0031
0x04006910:	57 21	SHL R1, R2
0x04006912:	55 41	OR R1, R4
0x04006914:	f7 34 80 46 bb 4b e8 6b 1f ad	MOVIqq R4, 0xad1f6be84bbb4680
0x0400691e:	f7 32 7d c6 e3 51 08 1a 37 c5	MOVIqq R2, 0xc5371a0851e3c67d
0x04006928:	4d 51	SUB R1, R5
0x0400692a:	f7 37 eb 13 b2 cc 11 34 e7 7f	MOVIqq R7, 0x7fe73411ccb213eb
0x04006934:	4d 71	SUB R1, R7
0x04006936:	4c 31	ADD R1, R3
0x04006938:	f7 37 e7 48 81 55 d5 4d 78 dc	MOVIqq R7, 0xdc784dd5558148e7
0x04006942:	4c 21	ADD R1, R2
0x04006944:	20 12	MOVqw R2, R1
0x04006946:	77 33 1b 00	MOVIqw R3, 0x001b
0x0400694a:	57 32	SHL R2, R3
0x0400694c:	77 33 25 00	MOVIqw R3, 0x0025
0x04006950:	58 31	SHR R1, R3
0x04006952:	55 21	OR R1, R2
0x04006954:	f7 32 f1 e4 a1 38 d8 9e 3d be	MOVIqq R2, 0xbe3d9ed838a1e4f1
0x0400695e:	f7 33 b0 7c 41 6d f7 a8 d2 84	MOVIqq R3, 0x84d2a8f76d417cb0
0x04006968:	f7 34 1d 00 a3 ba 27 cd f1 61	MOVIqq R4, 0x61f1cd27baa3001d
0x04006972:	56 21	XOR R1, R2
0x04006974:	4c 41	ADD R1, R4
0x04006976:	4b 11	NEG R1, R1
0x04006978:	f7 37 2c 30 fe a7 3d 1c 53 18	MOVIqq R7, 0x18531c3da7fe302c
0x04006982:	56 51	XOR R1, R5
0x04006984:	f7 36 e7 db a0 73 cd cf e7 dc	MOVIqq R6, 0xdce7cfcd73a0dbe7
0x0400698e:	20 16	MOVqw R6, R1
0x04006990:	77 32 1f 00	MOVIqw R2, 0x001f
0x04006994:	57 26	SHL R6, R2
0x04006996:	77 32 21 00	MOVIqw R2, 0x0021
0x0400699a:	58 21	SHR R1, R2
0x0400699c:	55 61	OR R1, R6
0x0400699e:	f7 36 97 00 fc 07 31 e4 63 00	MOVIqq R6, 0x0063e43107fc0097
0x040069a8:	f7 32 db 9b e8 18 22 12 ca 5a	MOVIqq R2, 0x5aca122218e89bdb
0x040069b2:	4c 41	ADD R1, R4
0x040069b4:	f7 37 6c 69 cf d2 b9 2f 67 8b	MOVIqq R7, 0x8b672fb9d2cf696c
0x040069be:	4c 71	ADD R1, R7
0x040069c0:	f7 36 33 b6 3a 88 cb b1 d3 fa	MOVIqq R6, 0xfad3b1cb883ab633
0x040069ca:	4a 11	NOT R1, R1
0x040069cc:	20 14	MOVqw R4, R1
0x040069ce:	77 35 1a 00	MOVIqw R5, 0x001a
0x040069d2:	58 54	SHR R4, R5
0x040069d4:	77 35 26 00	MOVIqw R5, 0x0026
0x040069d8:	57 51	SHL R1, R5
0x040069da:	55 41	OR R1, R4
0x040069dc:	f7 34 97 3f 47 52 95 e9 5f 32	MOVIqq R4, 0x325fe99552473f97
0x040069e6:	f7 35 64 0a eb b9 ed f6 1c e1	MOVIqq R5, 0xe11cf6edb9eb0a64
0x040069f0:	f7 35 21 9d 3c f1 ce 7b b5 16	MOVIqq R5, 0x16b57bcef13c9d21
0x040069fa:	77 33 04 00	MOVIqw R3, 0x0004
0x040069fe:	55 31	OR R1, R3
0x04006a00:	f7 33 87 b6 a1 ac fd bb fa 62	MOVIqq R3, 0x62fabbfdaca1b687
0x04006a0a:	f7 33 3e b6 b9 50 b6 d1 0f be	MOVIqq R3, 0xbe0fd1b650b9b63e
0x04006a14:	4d 61	SUB R1, R6
0x04006a16:	56 21	XOR R1, R2
0x04006a18:	f7 32 e4 be 37 69 30 96 84 b6	MOVIqq R2, 0xb68496306937bee4
0x04006a22:	4a 11	NOT R1, R1
0x04006a24:	4a 11	NOT R1, R1
0x04006a26:	f7 35 00 00 00 00 00 00 02 00	MOVIqq R5, 0x0002000000000000
0x04006a30:	55 51	OR R1, R5
0x04006a32:	f7 35 48 c3 f0 72 59 4b e6 8e	MOVIqq R5, 0x8ee64b5972f0c348
0x04006a3c:	f7 33 90 56 67 ab 40 39 8a 00	MOVIqq R3, 0x008a3940ab675690
0x04006a46:	20 13	MOVqw R3, R1
0x04006a48:	77 36 27 00	MOVIqw R6, 0x0027
0x04006a4c:	57 63	SHL R3, R6
0x04006a4e:	77 36 19 00	MOVIqw R6, 0x0019
0x04006a52:	58 61	SHR R1, R6
0x04006a54:	55 31	OR R1, R3
0x04006a56:	f7 33 14 6d 8f e0 f9 56 fc c2	MOVIqq R3, 0xc2fc56f9e08f6d14
0x04006a60:	f7 36 42 4e 67 7a 96 70 3a 23	MOVIqq R6, 0x233a70967a674e42
0x04006a6a:	4a 11	NOT R1, R1
0x04006a6c:	f7 37 fc 6b 03 dd a4 0f ae 24	MOVIqq R7, 0x24ae0fa4dd036bfc
0x04006a76:	4c 41	ADD R1, R4
0x04006a78:	f7 37 bc 59 c2 e4 4f b4 a3 b5	MOVIqq R7, 0xb5a3b44fe4c259bc
0x04006a82:	20 12	MOVqw R2, R1
0x04006a84:	77 34 0f 00	MOVIqw R4, 0x000f
0x04006a88:	58 42	SHR R2, R4
0x04006a8a:	77 34 31 00	MOVIqw R4, 0x0031
0x04006a8e:	57 41	SHL R1, R4
0x04006a90:	55 21	OR R1, R2
0x04006a92:	f7 32 7b e6 bb 29 fc d1 c6 b5	MOVIqq R2, 0xb5c6d1fc29bbe67b
0x04006a9c:	f7 34 1e c6 1d 45 39 cb 19 50	MOVIqq R4, 0x5019cb39451dc61e
0x04006aa6:	20 17	MOVqw R7, R1
0x04006aa8:	77 32 26 00	MOVIqw R2, 0x0026
0x04006aac:	58 27	SHR R7, R2
0x04006aae:	77 32 1a 00	MOVIqw R2, 0x001a
0x04006ab2:	57 21	SHL R1, R2
0x04006ab4:	55 71	OR R1, R7
0x04006ab6:	f7 37 a2 67 16 70 de 30 aa c1	MOVIqq R7, 0xc1aa30de701667a2
0x04006ac0:	f7 32 1f 45 60 b5 0b e8 bf 18	MOVIqq R2, 0x18bfe80bb560451f
0x04006aca:	4d 21	SUB R1, R2
0x04006acc:	f7 36 67 dd 4b fd f2 08 83 30	MOVIqq R6, 0x308308f2fd4bdd67
0x04006ad6:	f7 37 a3 ff e5 fa ba 92 08 67	MOVIqq R7, 0x670892bafae5ffa3
0x04006ae0:	45 71	CMPeq R1, R7
0x04006ae2:	82 46	JMP8cc 0x46
0x04006ae4:	60 81 02 10	MOVqw R1, @R0 (+2, +0)
0x04006ae8:	77 37 00 00	MOVIqw R7, 0x0000
0x04006aec:	77 32 ff 00	MOVIqw R2, 0x00ff
0x04006af0:	77 34 00 00	MOVIqw R4, 0x0000
0x04006af4:	77 35 08 00	MOVIqw R5, 0x0008
0x04006af8:	77 36 39 05	MOVIqw R6, 0x0539
0x04006afc:	20 13	MOVqw R3, R1
0x04006afe:	58 43	SHR R3, R4
0x04006b00:	54 23	AND R3, R2
0x04006b02:	4f 67	MULU R7, R6
0x04006b04:	4c 37	ADD R7, R3
0x04006b06:	4c 54	ADD R4, R5
0x04006b08:	20 13	MOVqw R3, R1
0x04006b0a:	58 43	SHR R3, R4
0x04006b0c:	54 23	AND R3, R2
0x04006b0e:	4f 67	MULU R7, R6
0x04006b10:	4c 37	ADD R7, R3
0x04006b12:	4c 54	ADD R4, R5
0x04006b14:	20 13	MOVqw R3, R1
0x04006b16:	58 43	SHR R3, R4
0x04006b18:	54 23	AND R3, R2
0x04006b1a:	4f 67	MULU R7, R6
0x04006b1c:	4c 37	ADD R7, R3
0x04006b1e:	4c 54	ADD R4, R5
0x04006b20:	20 13	MOVqw R3, R1
0x04006b22:	58 43	SHR R3, R4
0x04006b24:	54 23	AND R3, R2
0x04006b26:	4f 67	MULU R7, R6
0x04006b28:	4c 37	ADD R7, R3
0x04006b2a:	4c 54	ADD R4, R5
0x04006b2c:	20 13	MOVqw R3, R1
0x04006b2e:	58 43	SHR R3, R4
0x04006b30:	54 23	AND R3, R2
0x04006b32:	4f 67	MULU R7, R6
0x04006b34:	4c 37	ADD R7, R3
0x04006b36:	4c 54	ADD R4, R5
0x04006b38:	20 13	MOVqw R3, R1
0x04006b3a:	58 43	SHR R3, R4
0x04006b3c:	54 23	AND R3, R2
0x04006b3e:	4f 67	MULU R7, R6
0x04006b40:	4c 37	ADD R7, R3
0x04006b42:	4c 54	ADD R4, R5
0x04006b44:	20 13	MOVqw R3, R1
0x04006b46:	58 43	SHR R3, R4
0x04006b48:	54 23	AND R3, R2
0x04006b4a:	4f 67	MULU R7, R6
0x04006b4c:	4c 37	ADD R7, R3
0x04006b4e:	4c 54	ADD R4, R5
0x04006b50:	20 13	MOVqw R3, R1
0x04006b52:	58 43	SHR R3, R4
0x04006b54:	54 23	AND R3, R2
0x04006b56:	4f 67	MULU R7, R6
0x04006b58:	4c 37	ADD R7, R3
0x04006b5a:	20 71	MOVqw R1, R7
0x04006b5c:	f7 37 62 6f 11 44 64 aa 23 9f	MOVIqq R7, 0x9f23aa6444116f62
0x04006b66:	45 71	CMPeq R1, R7
0x04006b68:	82 03	JMP8cc 0x03
0x04006b6a:	77 31 01 00	MOVIqw R1, 0x0001
0x04006b6e:	02 02	JMP8 0x02
0x04006b70:	77 31 00 00	MOVIqw R1, 0x0000
0x04006b74:	20 17	MOVqw R7, R1
0x04006b76:	04 00	RET
